target datalayout = "e-m:e-p270:32:32-p271:32:32-p272:64:64-i64:64-i128:128-f80:128-n8:16:32:64-S128"
target triple = "x86_64-pc-linux-gnu"

%struct.MvcManagerStruct = type { ptr, ptr, ptr, ptr }
%struct.MvcCoverStruct = type { i32, i32, i32, %struct.MvcListStruct, ptr, i32, ptr, ptr, ptr }
%struct.MvcListStruct = type { ptr, ptr, i32 }
%struct.MvcCubeStruct = type { ptr, i32, i32, [1 x i32] }

; Function Attrs: nounwind uwtable
define void @Mvc_CoverFree(ptr noundef %0) #0 {
  %2 = alloca ptr, align 8
  %3 = alloca ptr, align 8
  %4 = alloca ptr, align 8
  store ptr %0, ptr %2, align 8, !tbaa !13
  call void @llvm.lifetime.start.p0(i64 8, ptr %3) #5
  call void @llvm.lifetime.start.p0(i64 8, ptr %4) #5
  %5 = load ptr, ptr %2, align 8, !tbaa !13
  %6 = getelementptr inbounds nuw %struct.MvcCoverStruct, ptr %5, i32 0, i32 3
  %7 = getelementptr inbounds nuw %struct.MvcListStruct, ptr %6, i32 0, i32 0
  %8 = load ptr, ptr %7, align 8, !tbaa !25
  store ptr %8, ptr %3, align 8, !tbaa !31
  %9 = load ptr, ptr %3, align 8, !tbaa !31
  %10 = icmp ne ptr %9, null
  br i1 %10, label %11, label %15

11:                                               ; preds = %1
  %12 = load ptr, ptr %3, align 8, !tbaa !31
  %13 = getelementptr inbounds nuw %struct.MvcCubeStruct, ptr %12, i32 0, i32 0
  %14 = load ptr, ptr %13, align 8, !tbaa !36
  br label %16

15:                                               ; preds = %1
  br label %16

16:                                               ; preds = %15, %11
  %17 = phi ptr [ %14, %11 ], [ null, %15 ]
  store ptr %17, ptr %4, align 8, !tbaa !31
  br label %18

18:                                               ; preds = %33, %16
  %19 = load ptr, ptr %3, align 8, !tbaa !31
  %20 = icmp ne ptr %19, null
  br i1 %20, label %21, label %35

21:                                               ; preds = %18
  %22 = load ptr, ptr %2, align 8, !tbaa !13
  %23 = load ptr, ptr %3, align 8, !tbaa !31
  call void @Mvc_CubeFree(ptr noundef %22, ptr noundef %23)
  br label %24

24:                                               ; preds = %21
  %25 = load ptr, ptr %4, align 8, !tbaa !31
  store ptr %25, ptr %3, align 8, !tbaa !31
  %26 = load ptr, ptr %3, align 8, !tbaa !31
  %27 = icmp ne ptr %26, null
  br i1 %27, label %28, label %32

28:                                               ; preds = %24
  %29 = load ptr, ptr %3, align 8, !tbaa !31
  %30 = getelementptr inbounds nuw %struct.MvcCubeStruct, ptr %29, i32 0, i32 0
  %31 = load ptr, ptr %30, align 8, !tbaa !36
  br label %33

32:                                               ; preds = %24
  br label %33

33:                                               ; preds = %32, %28
  %34 = phi ptr [ %31, %28 ], [ null, %32 ]
  store ptr %34, ptr %4, align 8, !tbaa !31
  br label %18, !llvm.loop !41

35:                                               ; preds = %18
  %36 = load ptr, ptr %2, align 8, !tbaa !13
  %37 = load ptr, ptr %2, align 8, !tbaa !13
  %38 = getelementptr inbounds nuw %struct.MvcCoverStruct, ptr %37, i32 0, i32 7
  %39 = load ptr, ptr %38, align 8, !tbaa !29
  call void @Mvc_CubeFree(ptr noundef %36, ptr noundef %39)
  %40 = load ptr, ptr %2, align 8, !tbaa !13
  %41 = getelementptr inbounds nuw %struct.MvcCoverStruct, ptr %40, i32 0, i32 4
  %42 = load ptr, ptr %41, align 8, !tbaa !28
  %43 = icmp ne ptr %42, null
  br i1 %43, label %44, label %59

44:                                               ; preds = %35
  %45 = load ptr, ptr %2, align 8, !tbaa !13
  %46 = getelementptr inbounds nuw %struct.MvcCoverStruct, ptr %45, i32 0, i32 4
  %47 = load ptr, ptr %46, align 8, !tbaa !28
  %48 = icmp ne ptr %47, null
  br i1 %48, label %49, label %55

49:                                               ; preds = %44
  %50 = load ptr, ptr %2, align 8, !tbaa !13
  %51 = getelementptr inbounds nuw %struct.MvcCoverStruct, ptr %50, i32 0, i32 4
  %52 = load ptr, ptr %51, align 8, !tbaa !28
  call void @free(ptr noundef %52) #5
  %53 = load ptr, ptr %2, align 8, !tbaa !13
  %54 = getelementptr inbounds nuw %struct.MvcCoverStruct, ptr %53, i32 0, i32 4
  store ptr null, ptr %54, align 8, !tbaa !28
  br label %56

55:                                               ; preds = %44
  br label %56

56:                                               ; preds = %55, %49
  %57 = load ptr, ptr %2, align 8, !tbaa !13
  %58 = getelementptr inbounds nuw %struct.MvcCoverStruct, ptr %57, i32 0, i32 4
  store ptr null, ptr %58, align 8, !tbaa !28
  br label %59

59:                                               ; preds = %56, %35
  %60 = load ptr, ptr %2, align 8, !tbaa !13
  %61 = getelementptr inbounds nuw %struct.MvcCoverStruct, ptr %60, i32 0, i32 6
  %62 = load ptr, ptr %61, align 8, !tbaa !30
  %63 = icmp ne ptr %62, null
  br i1 %63, label %64, label %79

64:                                               ; preds = %59
  %65 = load ptr, ptr %2, align 8, !tbaa !13
  %66 = getelementptr inbounds nuw %struct.MvcCoverStruct, ptr %65, i32 0, i32 6
  %67 = load ptr, ptr %66, align 8, !tbaa !30
  %68 = icmp ne ptr %67, null
  br i1 %68, label %69, label %75

69:                                               ; preds = %64
  %70 = load ptr, ptr %2, align 8, !tbaa !13
  %71 = getelementptr inbounds nuw %struct.MvcCoverStruct, ptr %70, i32 0, i32 6
  %72 = load ptr, ptr %71, align 8, !tbaa !30
  call void @free(ptr noundef %72) #5
  %73 = load ptr, ptr %2, align 8, !tbaa !13
  %74 = getelementptr inbounds nuw %struct.MvcCoverStruct, ptr %73, i32 0, i32 6
  store ptr null, ptr %74, align 8, !tbaa !30
  br label %76

75:                                               ; preds = %64
  br label %76

76:                                               ; preds = %75, %69
  %77 = load ptr, ptr %2, align 8, !tbaa !13
  %78 = getelementptr inbounds nuw %struct.MvcCoverStruct, ptr %77, i32 0, i32 6
  store ptr null, ptr %78, align 8, !tbaa !30
  br label %79

79:                                               ; preds = %76, %59
  %80 = load ptr, ptr %2, align 8, !tbaa !13
  %81 = getelementptr inbounds nuw %struct.MvcCoverStruct, ptr %80, i32 0, i32 8
  %82 = load ptr, ptr %81, align 8, !tbaa !15
  %83 = getelementptr inbounds nuw %struct.MvcManagerStruct, ptr %82, i32 0, i32 0
  %84 = load ptr, ptr %83, align 8, !tbaa !10
  %85 = load ptr, ptr %2, align 8, !tbaa !13
  call void @Extra_MmFixedEntryRecycle(ptr noundef %84, ptr noundef %85)
  call void @llvm.lifetime.end.p0(i64 8, ptr %4) #5
  call void @llvm.lifetime.end.p0(i64 8, ptr %3) #5
  ret void
}