; Function Attrs: nounwind uwtable
define void @Mvc_CoverFree(ptr noundef %0) local_unnamed_addr #0 {
  %2 = getelementptr inbounds nuw i8, ptr %0, i64 16
  %3 = load ptr, ptr %2, align 8, !tbaa !30
  %.not = icmp eq ptr %3, null
  br i1 %.not, label %._crit_edge, label %.lr.ph

.lr.ph:                                           ; preds = %1, %.lr.ph
  %.033.sink = phi ptr [ %4, %.lr.ph ], [ %3, %1 ]
  %4 = load ptr, ptr %.033.sink, align 8, !tbaa !25
  tail call void @Mvc_CubeFree(ptr noundef %0, ptr noundef nonnull %.033.sink) #7
  %.not30 = icmp eq ptr %4, null
  br i1 %.not30, label %._crit_edge, label %.lr.ph, !llvm.loop !31

._crit_edge:                                      ; preds = %.lr.ph, %1
  %5 = getelementptr inbounds nuw i8, ptr %0, i64 64
  %6 = load ptr, ptr %5, align 8, !tbaa !32
  tail call void @Mvc_CubeFree(ptr noundef %0, ptr noundef %6) #7
  %7 = getelementptr inbounds nuw i8, ptr %0, i64 40
  %8 = load ptr, ptr %7, align 8, !tbaa !21
  %.not28 = icmp eq ptr %8, null
  br i1 %.not28, label %10, label %9

9:                                                ; preds = %._crit_edge
  tail call void @free(ptr noundef nonnull %8) #7
  store ptr null, ptr %7, align 8, !tbaa !21
  br label %10

10:                                               ; preds = %9, %._crit_edge
  %11 = getelementptr inbounds nuw i8, ptr %0, i64 56
  %12 = load ptr, ptr %11, align 8, !tbaa !33
  %.not29 = icmp eq ptr %12, null
  br i1 %.not29, label %14, label %13

13:                                               ; preds = %10
  tail call void @free(ptr noundef nonnull %12) #7
  store ptr null, ptr %11, align 8, !tbaa !33
  br label %14

14:                                               ; preds = %13, %10
  %15 = getelementptr inbounds nuw i8, ptr %0, i64 72
  %16 = load ptr, ptr %15, align 8, !tbaa !9
  %17 = load ptr, ptr %16, align 8, !tbaa !3
  tail call void @Extra_MmFixedEntryRecycle(ptr noundef %17, ptr noundef nonnull %0) #7
  ret void
}